; Function Attrs: mustprogress nofree norecurse nosync nounwind willreturn memory(read, inaccessiblemem: none) uwtable
define hidden noundef range(i32 0, -2147483648) i32 @_ZNK5ceres8internal7Program29MaxParametersPerResidualBlockEv(ptr noundef nonnull readonly align 8 captures(none) dereferenceable(56) %0) local_unnamed_addr #14 align 2 {
  %2 = getelementptr inbounds nuw i8, ptr %0, i64 24
  %3 = load ptr, ptr %2, align 8, !tbaa !117
  %4 = getelementptr inbounds nuw i8, ptr %0, i64 32
  %5 = load ptr, ptr %4, align 8, !tbaa !117
  %.not11 = icmp eq ptr %3, %5
  br i1 %.not11, label %._crit_edge, label %.lr.ph

._crit_edge:                                      ; preds = %.lr.ph, %1
  %.0.lcssa = phi i32 [ 0, %1 ], [ %.sroa.speculated, %.lr.ph ]
  ret i32 %.0.lcssa

.lr.ph:                                           ; preds = %1, %.lr.ph
  %.013 = phi i32 [ %.sroa.speculated, %.lr.ph ], [ 0, %1 ]
  %.sroa.05.012 = phi ptr [ %17, %.lr.ph ], [ %3, %1 ]
  %6 = load ptr, ptr %.sroa.05.012, align 8, !tbaa !118
  %7 = load ptr, ptr %6, align 8, !tbaa !120
  %8 = getelementptr inbounds nuw i8, ptr %7, i64 8
  %9 = getelementptr inbounds nuw i8, ptr %7, i64 16
  %10 = load ptr, ptr %9, align 8, !tbaa !130
  %11 = load ptr, ptr %8, align 8, !tbaa !133
  %12 = ptrtoint ptr %10 to i64
  %13 = ptrtoint ptr %11 to i64
  %14 = sub i64 %12, %13
  %15 = lshr exact i64 %14, 2
  %16 = trunc i64 %15 to i32
  %.sroa.speculated = tail call i32 @llvm.smax.i32(i32 %.013, i32 %16)
  %17 = getelementptr inbounds nuw i8, ptr %.sroa.05.012, i64 8
  %.not = icmp eq ptr %17, %5
  br i1 %.not, label %._crit_edge, label %.lr.ph
}